target datalayout = "e-m:e-p270:32:32-p271:32:32-p272:64:64-i64:64-i128:128-f80:128-n8:16:32:64-S128"
target triple = "x86_64-pc-linux-gnu"

%struct.dt_imageio_png_t = type { %struct.dt_imageio_module_data_t, i32, i32, ptr, ptr, ptr }
%struct.dt_imageio_module_data_t = type { i32, i32, i32, i32, [128 x i8], i32 }
%struct.dt_imageio_module_format_t = type { %struct.dt_action_t, ptr, ptr, ptr, ptr, ptr, ptr, ptr, ptr, ptr, ptr, ptr, ptr, ptr, ptr, ptr, ptr, ptr, ptr, ptr, ptr, [128 x i8], ptr, ptr, ptr, i32, i32 }
%struct.dt_action_t = type { i32, ptr, ptr, ptr, ptr, ptr }
%struct.dt_imageio_png_gui_t = type { ptr, ptr }

@.str.8 = private unnamed_addr constant [31 x i8] c"plugins/imageio/format/png/bpp\00", align 1
@.str.9 = private unnamed_addr constant [39 x i8] c"plugins/imageio/format/png/compression\00", align 1

; Function Attrs: nounwind uwtable
define i32 @set_params(ptr noundef %0, ptr noundef %1, i32 noundef %2) #0 {
  %4 = alloca i32, align 4
  %5 = alloca ptr, align 8
  %6 = alloca ptr, align 8
  %7 = alloca i32, align 4
  %8 = alloca ptr, align 8
  %9 = alloca ptr, align 8
  store ptr %0, ptr %5, align 8, !tbaa !88
  store ptr %1, ptr %6, align 8, !tbaa !13
  store i32 %2, ptr %7, align 4, !tbaa !14
  %10 = load i32, ptr %7, align 4, !tbaa !14
  %11 = sext i32 %10 to i64
  %12 = load ptr, ptr %5, align 8, !tbaa !88
  %13 = getelementptr inbounds nuw %struct.dt_imageio_module_format_t, ptr %12, i32 0, i32 9
  %14 = load ptr, ptr %13, align 8, !tbaa !129
  %15 = load ptr, ptr %5, align 8, !tbaa !88
  %16 = call i64 %14(ptr noundef %15)
  %17 = icmp ne i64 %11, %16
  br i1 %17, label %18, label %19

18:                                               ; preds = %3
  store i32 1, ptr %4, align 4
  br label %50

19:                                               ; preds = %3
  call void @llvm.lifetime.start.p0(i64 8, ptr %8) #13
  %20 = load ptr, ptr %6, align 8, !tbaa !13
  store ptr %20, ptr %8, align 8, !tbaa !18
  call void @llvm.lifetime.start.p0(i64 8, ptr %9) #13
  %21 = load ptr, ptr %5, align 8, !tbaa !88
  %22 = getelementptr inbounds nuw %struct.dt_imageio_module_format_t, ptr %21, i32 0, i32 24
  %23 = load ptr, ptr %22, align 8, !tbaa !135
  store ptr %23, ptr %9, align 8, !tbaa !136
  %24 = load ptr, ptr %8, align 8, !tbaa !18
  %25 = getelementptr inbounds nuw %struct.dt_imageio_png_t, ptr %24, i32 0, i32 1
  %26 = load i32, ptr %25, align 4, !tbaa !31
  %27 = icmp slt i32 %26, 12
  br i1 %27, label %28, label %32

28:                                               ; preds = %19
  %29 = load ptr, ptr %9, align 8, !tbaa !136
  %30 = getelementptr inbounds nuw %struct.dt_imageio_png_gui_t, ptr %29, i32 0, i32 0
  %31 = load ptr, ptr %30, align 8, !tbaa !138
  call void @dt_bauhaus_combobox_set(ptr noundef %31, i32 noundef 0)
  br label %36

32:                                               ; preds = %19
  %33 = load ptr, ptr %9, align 8, !tbaa !136
  %34 = getelementptr inbounds nuw %struct.dt_imageio_png_gui_t, ptr %33, i32 0, i32 0
  %35 = load ptr, ptr %34, align 8, !tbaa !138
  call void @dt_bauhaus_combobox_set(ptr noundef %35, i32 noundef 1)
  br label %36

36:                                               ; preds = %32, %28
  %37 = load ptr, ptr %8, align 8, !tbaa !18
  %38 = getelementptr inbounds nuw %struct.dt_imageio_png_t, ptr %37, i32 0, i32 1
  %39 = load i32, ptr %38, align 4, !tbaa !31
  call void @dt_conf_set_int(ptr noundef @.str.8, i32 noundef %39)
  %40 = load ptr, ptr %9, align 8, !tbaa !136
  %41 = getelementptr inbounds nuw %struct.dt_imageio_png_gui_t, ptr %40, i32 0, i32 1
  %42 = load ptr, ptr %41, align 8, !tbaa !140
  %43 = load ptr, ptr %8, align 8, !tbaa !18
  %44 = getelementptr inbounds nuw %struct.dt_imageio_png_t, ptr %43, i32 0, i32 2
  %45 = load i32, ptr %44, align 8, !tbaa !30
  %46 = sitofp i32 %45 to float
  call void @dt_bauhaus_slider_set(ptr noundef %42, float noundef %46)
  %47 = load ptr, ptr %8, align 8, !tbaa !18
  %48 = getelementptr inbounds nuw %struct.dt_imageio_png_t, ptr %47, i32 0, i32 2
  %49 = load i32, ptr %48, align 8, !tbaa !30
  call void @dt_conf_set_int(ptr noundef @.str.9, i32 noundef %49)
  store i32 0, ptr %4, align 4
  call void @llvm.lifetime.end.p0(i64 8, ptr %9) #13
  call void @llvm.lifetime.end.p0(i64 8, ptr %8) #13
  br label %50

50:                                               ; preds = %36, %18
  %51 = load i32, ptr %4, align 4
  ret i32 %51
}