; Function Attrs: nounwind uwtable
define range(i32 0, 2) i32 @set_params(ptr noundef %0, ptr noundef readonly captures(none) %1, i32 noundef %2) local_unnamed_addr #1 {
  %4 = sext i32 %2 to i64
  %5 = getelementptr inbounds nuw i8, ptr %0, i64 112
  %6 = load ptr, ptr %5, align 8, !tbaa !61
  %7 = tail call i64 %6(ptr noundef %0) #20
  %.not = icmp eq i64 %7, %4
  br i1 %.not, label %8, label %22

8:                                                ; preds = %3
  %9 = getelementptr inbounds nuw i8, ptr %0, i64 352
  %10 = load ptr, ptr %9, align 8, !tbaa !67
  %11 = getelementptr inbounds nuw i8, ptr %1, i64 148
  %12 = load i32, ptr %11, align 4, !tbaa !20
  %13 = icmp sgt i32 %12, 11
  %14 = load ptr, ptr %10, align 8, !tbaa !68
  %. = zext i1 %13 to i32
  tail call void @dt_bauhaus_combobox_set(ptr noundef %14, i32 noundef %.) #20
  %15 = load i32, ptr %11, align 4, !tbaa !20
  tail call void @dt_conf_set_int(ptr noundef nonnull @.str.8, i32 noundef %15) #20
  %16 = getelementptr inbounds nuw i8, ptr %10, i64 8
  %17 = load ptr, ptr %16, align 8, !tbaa !70
  %18 = getelementptr inbounds nuw i8, ptr %1, i64 152
  %19 = load i32, ptr %18, align 8, !tbaa !19
  %20 = sitofp i32 %19 to float
  tail call void @dt_bauhaus_slider_set(ptr noundef %17, float noundef %20) #20
  %21 = load i32, ptr %18, align 8, !tbaa !19
  tail call void @dt_conf_set_int(ptr noundef nonnull @.str.9, i32 noundef %21) #20
  br label %22

22:                                               ; preds = %3, %8
  %.0 = phi i32 [ 0, %8 ], [ 1, %3 ]
  ret i32 %.0
}